; Function Attrs: mustprogress uwtable
define hidden noundef zeroext i1 @_ZNK4cvc58internal3smt20WitnessFormGenerator28requiresWitnessFormTransformENS0_12NodeTemplateILb1EEES4_(ptr nocapture noundef nonnull readonly align 8 dereferenceable(1568) %this, ptr nocapture noundef readonly %t, ptr nocapture noundef readonly %s) local_unnamed_addr #3 align 2 personality ptr @__gxx_personality_v0 {
entry:
  %ref.tmp = alloca %"class.cvc5::internal::NodeTemplate", align 8
  %agg.tmp = alloca %"class.cvc5::internal::NodeTemplate.313", align 8
  %ref.tmp2 = alloca %"class.cvc5::internal::NodeTemplate", align 8
  %agg.tmp4 = alloca %"class.cvc5::internal::NodeTemplate.313", align 8
  %d_rewriter = getelementptr inbounds i8, ptr %this, i64 8
  %0 = load ptr, ptr %d_rewriter, align 8
  %1 = load ptr, ptr %t, align 8
  store ptr %1, ptr %agg.tmp, align 8
  call void @_ZN4cvc58internal6theory8Rewriter7rewriteENS0_12NodeTemplateILb0EEE(ptr nonnull sret(%"class.cvc5::internal::NodeTemplate") align 8 %ref.tmp, ptr noundef nonnull align 8 dereferenceable(184) %0, ptr noundef nonnull %agg.tmp)
  %2 = load ptr, ptr %d_rewriter, align 8
  %3 = load ptr, ptr %s, align 8
  store ptr %3, ptr %agg.tmp4, align 8
  invoke void @_ZN4cvc58internal6theory8Rewriter7rewriteENS0_12NodeTemplateILb0EEE(ptr nonnull sret(%"class.cvc5::internal::NodeTemplate") align 8 %ref.tmp2, ptr noundef nonnull align 8 dereferenceable(184) %2, ptr noundef nonnull %agg.tmp4)
          to label %invoke.cont8 unwind label %lpad7

invoke.cont8:                                     ; preds = %entry
  %4 = load ptr, ptr %ref.tmp, align 8
  %5 = load ptr, ptr %ref.tmp2, align 8
  %bf.load.i.i = load i64, ptr %5, align 8
  %6 = and i64 %bf.load.i.i, 1152920405095219200
  %cmp.not.i.i = icmp eq i64 %6, 1152920405095219200
  br i1 %cmp.not.i.i, label %_ZN4cvc58internal12NodeTemplateILb1EED2Ev.exit, label %if.then.i.i

if.then.i.i:                                      ; preds = %invoke.cont8
  %bf.value.i.i = add i64 %bf.load.i.i, 1152920405095219200
  %bf.shl.i.i = and i64 %bf.value.i.i, 1152920405095219200
  %bf.clear7.i.i = and i64 %bf.load.i.i, -1152920405095219201
  %bf.set.i.i = or disjoint i64 %bf.shl.i.i, %bf.clear7.i.i
  store i64 %bf.set.i.i, ptr %5, align 8
  %cmp12.i.i = icmp eq i64 %bf.shl.i.i, 0
  br i1 %cmp12.i.i, label %if.then13.i.i, label %_ZN4cvc58internal12NodeTemplateILb1EED2Ev.exit

if.then13.i.i:                                    ; preds = %if.then.i.i
  invoke void @_ZN4cvc58internal4expr9NodeValue15markForDeletionEv(ptr noundef nonnull align 8 dereferenceable(16) %5)
          to label %_ZN4cvc58internal12NodeTemplateILb1EED2Ev.exit unwind label %terminate.lpad.i

terminate.lpad.i:                                 ; preds = %if.then13.i.i
  %7 = landingpad { ptr, i32 }
          catch ptr null
  %8 = extractvalue { ptr, i32 } %7, 0
  call void @__clang_call_terminate(ptr %8) #16
  unreachable

_ZN4cvc58internal12NodeTemplateILb1EED2Ev.exit:   ; preds = %invoke.cont8, %if.then.i.i, %if.then13.i.i
  %9 = load ptr, ptr %ref.tmp, align 8
  %bf.load.i.i2 = load i64, ptr %9, align 8
  %10 = and i64 %bf.load.i.i2, 1152920405095219200
  %cmp.not.i.i3 = icmp eq i64 %10, 1152920405095219200
  br i1 %cmp.not.i.i3, label %_ZN4cvc58internal12NodeTemplateILb1EED2Ev.exit12, label %if.then.i.i4

if.then.i.i4:                                     ; preds = %_ZN4cvc58internal12NodeTemplateILb1EED2Ev.exit
  %bf.value.i.i5 = add i64 %bf.load.i.i2, 1152920405095219200
  %bf.shl.i.i6 = and i64 %bf.value.i.i5, 1152920405095219200
  %bf.clear7.i.i7 = and i64 %bf.load.i.i2, -1152920405095219201
  %bf.set.i.i8 = or disjoint i64 %bf.shl.i.i6, %bf.clear7.i.i7
  store i64 %bf.set.i.i8, ptr %9, align 8
  %cmp12.i.i9 = icmp eq i64 %bf.shl.i.i6, 0
  br i1 %cmp12.i.i9, label %if.then13.i.i10, label %_ZN4cvc58internal12NodeTemplateILb1EED2Ev.exit12

if.then13.i.i10:                                  ; preds = %if.then.i.i4
  invoke void @_ZN4cvc58internal4expr9NodeValue15markForDeletionEv(ptr noundef nonnull align 8 dereferenceable(16) %9)
          to label %_ZN4cvc58internal12NodeTemplateILb1EED2Ev.exit12 unwind label %terminate.lpad.i11

terminate.lpad.i11:                               ; preds = %if.then13.i.i10
  %11 = landingpad { ptr, i32 }
          catch ptr null
  %12 = extractvalue { ptr, i32 } %11, 0
  call void @__clang_call_terminate(ptr %12) #16
  unreachable

_ZN4cvc58internal12NodeTemplateILb1EED2Ev.exit12: ; preds = %_ZN4cvc58internal12NodeTemplateILb1EED2Ev.exit, %if.then.i.i4, %if.then13.i.i10
  %cmp.i = icmp ne ptr %4, %5
  ret i1 %cmp.i

lpad7:                                            ; preds = %entry
  %13 = landingpad { ptr, i32 }
          cleanup
  call void @_ZN4cvc58internal12NodeTemplateILb1EED2Ev(ptr noundef nonnull align 8 dereferenceable(8) %ref.tmp) #15
  resume { ptr, i32 } %13
}